target datalayout = "e-m:e-p270:32:32-p271:32:32-p272:64:64-i64:64-i128:128-f80:128-n8:16:32:64-S128"
target triple = "x86_64-pc-linux-gnu"

%struct.object_id = type { [32 x i8], i32 }
%struct.worktree = type { ptr, ptr, ptr, ptr, ptr, ptr, %struct.object_id, i32, i32, i32, i32, i32 }

; Function Attrs: nounwind uwtable
define internal i32 @pathcmp(ptr noundef %0, ptr noundef %1) #0 {
  %3 = alloca ptr, align 8
  %4 = alloca ptr, align 8
  %5 = alloca ptr, align 8
  %6 = alloca ptr, align 8
  store ptr %0, ptr %3, align 8, !tbaa !15
  store ptr %1, ptr %4, align 8, !tbaa !15
  call void @llvm.lifetime.start.p0(i64 8, ptr %5) #11
  %7 = load ptr, ptr %3, align 8, !tbaa !15
  store ptr %7, ptr %5, align 8, !tbaa !61
  call void @llvm.lifetime.start.p0(i64 8, ptr %6) #11
  %8 = load ptr, ptr %4, align 8, !tbaa !15
  store ptr %8, ptr %6, align 8, !tbaa !61
  %9 = load ptr, ptr %5, align 8, !tbaa !61
  %10 = load ptr, ptr %9, align 8, !tbaa !63
  %11 = getelementptr inbounds nuw %struct.worktree, ptr %10, i32 0, i32 1
  %12 = load ptr, ptr %11, align 8, !tbaa !71
  %13 = load ptr, ptr %6, align 8, !tbaa !61
  %14 = load ptr, ptr %13, align 8, !tbaa !63
  %15 = getelementptr inbounds nuw %struct.worktree, ptr %14, i32 0, i32 1
  %16 = load ptr, ptr %15, align 8, !tbaa !71
  %17 = call i32 @git_fspathcmp(ptr noundef %12, ptr noundef %16)
  call void @llvm.lifetime.end.p0(i64 8, ptr %6) #11
  call void @llvm.lifetime.end.p0(i64 8, ptr %5) #11
  ret i32 %17
}